; ModuleID = '45/365.c'
source_filename = "45/365.c"
target datalayout = "e-m:e-p270:32:32-p271:32:32-p272:64:64-i64:64-f80:128-n8:16:32:64-S128"
target triple = "x86_64-pc-linux-gnu"

@.str = private unnamed_addr constant [6 x i8] c"%s %s\00", align 1
@.str.1 = private unnamed_addr constant [3 x i8] c"%d\00", align 1

; Function Attrs: noinline nounwind uwtable
define dso_local i32 @main() #0 {
  %1 = alloca i32, align 4
  %2 = alloca [51 x i8], align 16
  %3 = alloca [51 x i8], align 16
  store i32 0, i32* %1, align 4
  %4 = getelementptr inbounds [51 x i8], [51 x i8]* %3, i64 0, i64 0
  %5 = getelementptr inbounds [51 x i8], [51 x i8]* %2, i64 0, i64 0
  %6 = call i32 (i8*, ...) @__isoc99_scanf(i8* getelementptr inbounds ([6 x i8], [6 x i8]* @.str, i64 0, i64 0), i8* %4, i8* %5)
  %7 = getelementptr inbounds [51 x i8], [51 x i8]* %2, i64 0, i64 0
  %8 = getelementptr inbounds [51 x i8], [51 x i8]* %3, i64 0, i64 0
  %9 = call i8* @strstr(i8* %7, i8* %8) #3
  %10 = getelementptr inbounds [51 x i8], [51 x i8]* %2, i64 0, i64 0
  %11 = ptrtoint i8* %9 to i64
  %12 = ptrtoint i8* %10 to i64
  %13 = sub i64 %11, %12
  %14 = call i32 (i8*, ...) @printf(i8* getelementptr inbounds ([3 x i8], [3 x i8]* @.str.1, i64 0, i64 0), i64 %13)
  ret i32 0
}

declare dso_local i32 @__isoc99_scanf(i8*, ...) #1

declare dso_local i32 @printf(i8*, ...) #1

; Function Attrs: nounwind readonly
declare dso_local i8* @strstr(i8*, i8*) #2


!llvm.module.flags = !{!0}
!llvm.ident = !{!1}

!0 = !{i32 1, !"wchar_size", i32 4}
!1 = !{!"clang version 10.0.0-4ubuntu1 "}
